; Function Attrs: mustprogress nounwind uwtable
define dso_local noundef ptr @_ZN4llvm9DIBuilder17createCommonBlockEPNS_7DIScopeEPNS_16DIGlobalVariableENS_9StringRefEPNS_6DIFileEj(ptr nocapture noundef nonnull readonly align 8 dereferenceable(416) %0, ptr noundef %1, ptr noundef %2, ptr %3, i64 %4, ptr noundef %5, i32 noundef %6) local_unnamed_addr #0 align 2 {
  %8 = getelementptr inbounds nuw i8, ptr %0, i64 8
  %9 = load ptr, ptr %8, align 8
  %10 = icmp eq i64 %4, 0
  br i1 %10, label %_ZN4llvm13DICommonBlock3getERNS_11LLVMContextEPNS_7DIScopeEPNS_16DIGlobalVariableENS_9StringRefEPNS_6DIFileEj.exit, label %11

11:                                               ; preds = %7
  %12 = tail call noundef ptr @_ZN4llvm8MDString3getERNS_11LLVMContextENS_9StringRefE(ptr noundef nonnull align 8 dereferenceable(8) %9, ptr %3, i64 %4) #13
  br label %_ZN4llvm13DICommonBlock3getERNS_11LLVMContextEPNS_7DIScopeEPNS_16DIGlobalVariableENS_9StringRefEPNS_6DIFileEj.exit

_ZN4llvm13DICommonBlock3getERNS_11LLVMContextEPNS_7DIScopeEPNS_16DIGlobalVariableENS_9StringRefEPNS_6DIFileEj.exit: ; preds = %7, %11
  %.0.i.i.i = phi ptr [ %12, %11 ], [ null, %7 ]
  %13 = tail call noundef ptr @_ZN4llvm13DICommonBlock7getImplERNS_11LLVMContextEPNS_8MetadataES4_PNS_8MDStringES4_jNS3_11StorageTypeEb(ptr noundef nonnull align 8 dereferenceable(8) %9, ptr noundef %1, ptr noundef %2, ptr noundef %.0.i.i.i, ptr noundef %5, i32 noundef %6, i32 noundef 0, i1 noundef zeroext true) #13
  ret ptr %13
}